#include <math.h>
#include <stdio.h>
#include <stdlib.h>
#include <string.h>

void main()
{
	int i,maxi;
	char max,a[10],b[10];
	while(scanf("%s ",a)!=EOF)
	{
		max=a[0];
		gets(b);
		for(i=0;a[i]!='\0';i++)
		{
			if(a[i]>max)
			{
				maxi=i;
				max=a[i];
			}
		}
		for(i=0;i<=maxi;i++)
		{
			printf("%c",a[i]);
		}
		printf("%s",b);
		for(i=maxi+1;a[i]!='\0';i++)
		{
			printf("%c",a[i]);
		}
		printf("\n");
	}
}

